
build/myos.bin:     format de fichier elf32-i386


Déassemblage de la section .text :

00101000 <_start>:
  101000:	bc 10 60 10 00       	mov    $0x106010,%esp
  101005:	6a 00                	push   $0x0
  101007:	9d                   	popf   
  101008:	53                   	push   %ebx
  101009:	50                   	push   %eax
  10100a:	e8 21 03 00 00       	call   101330 <kernel_main>
  10100f:	fa                   	cli    
  101010:	f4                   	hlt    
  101011:	eb fd                	jmp    101010 <_start+0x10>
  101013:	66 90                	xchg   %ax,%ax
  101015:	66 90                	xchg   %ax,%ax
  101017:	66 90                	xchg   %ax,%ax
  101019:	66 90                	xchg   %ax,%ax
  10101b:	66 90                	xchg   %ax,%ax
  10101d:	66 90                	xchg   %ax,%ax
  10101f:	90                   	nop

00101020 <strrev.part.1>:
  101020:	80 38 00             	cmpb   $0x0,(%eax)
  101023:	74 40                	je     101065 <strrev.part.1+0x45>
  101025:	31 d2                	xor    %edx,%edx
  101027:	eb 09                	jmp    101032 <strrev.part.1+0x12>
  101029:	8d b4 26 00 00 00 00 	lea    0x0(%esi,%eiz,1),%esi
  101030:	89 ca                	mov    %ecx,%edx
  101032:	80 7c 10 01 00       	cmpb   $0x0,0x1(%eax,%edx,1)
  101037:	8d 4a 01             	lea    0x1(%edx),%ecx
  10103a:	75 f4                	jne    101030 <strrev.part.1+0x10>
  10103c:	01 c2                	add    %eax,%edx
  10103e:	39 d0                	cmp    %edx,%eax
  101040:	73 20                	jae    101062 <strrev.part.1+0x42>
  101042:	8d b6 00 00 00 00    	lea    0x0(%esi),%esi
  101048:	0f b6 08             	movzbl (%eax),%ecx
  10104b:	83 ea 01             	sub    $0x1,%edx
  10104e:	32 4a 01             	xor    0x1(%edx),%cl
  101051:	88 08                	mov    %cl,(%eax)
  101053:	32 4a 01             	xor    0x1(%edx),%cl
  101056:	88 4a 01             	mov    %cl,0x1(%edx)
  101059:	30 08                	xor    %cl,(%eax)
  10105b:	83 c0 01             	add    $0x1,%eax
  10105e:	39 d0                	cmp    %edx,%eax
  101060:	72 e6                	jb     101048 <strrev.part.1+0x28>
  101062:	31 c0                	xor    %eax,%eax
  101064:	c3                   	ret    
  101065:	ba ff ff ff ff       	mov    $0xffffffff,%edx
  10106a:	eb d0                	jmp    10103c <strrev.part.1+0x1c>
  10106c:	8d 74 26 00          	lea    0x0(%esi,%eiz,1),%esi

00101070 <strlen>:
  101070:	8b 54 24 04          	mov    0x4(%esp),%edx
  101074:	31 c0                	xor    %eax,%eax
  101076:	80 3a 00             	cmpb   $0x0,(%edx)
  101079:	74 10                	je     10108b <strlen+0x1b>
  10107b:	90                   	nop
  10107c:	8d 74 26 00          	lea    0x0(%esi,%eiz,1),%esi
  101080:	83 c0 01             	add    $0x1,%eax
  101083:	80 3c 02 00          	cmpb   $0x0,(%edx,%eax,1)
  101087:	75 f7                	jne    101080 <strlen+0x10>
  101089:	f3 c3                	repz ret 
  10108b:	f3 c3                	repz ret 
  10108d:	8d 76 00             	lea    0x0(%esi),%esi

00101090 <terminal_initialize>:
  101090:	c7 05 0c 20 10 00 00 	movl   $0x0,0x10200c
  101097:	00 00 00 
  10109a:	c7 05 04 20 10 00 00 	movl   $0x0,0x102004
  1010a1:	00 00 00 
  1010a4:	b8 00 80 0b 00       	mov    $0xb8000,%eax
  1010a9:	c6 05 00 20 10 00 07 	movb   $0x7,0x102000
  1010b0:	c7 05 08 20 10 00 00 	movl   $0xb8000,0x102008
  1010b7:	80 0b 00 
  1010ba:	8d b6 00 00 00 00    	lea    0x0(%esi),%esi
  1010c0:	8d 90 a0 00 00 00    	lea    0xa0(%eax),%edx
  1010c6:	8d 76 00             	lea    0x0(%esi),%esi
  1010c9:	8d bc 27 00 00 00 00 	lea    0x0(%edi,%eiz,1),%edi
  1010d0:	b9 20 07 00 00       	mov    $0x720,%ecx
  1010d5:	83 c0 02             	add    $0x2,%eax
  1010d8:	66 89 48 fe          	mov    %cx,-0x2(%eax)
  1010dc:	39 d0                	cmp    %edx,%eax
  1010de:	75 f0                	jne    1010d0 <terminal_initialize+0x40>
  1010e0:	3d a0 8f 0b 00       	cmp    $0xb8fa0,%eax
  1010e5:	75 d9                	jne    1010c0 <terminal_initialize+0x30>
  1010e7:	f3 c3                	repz ret 
  1010e9:	8d b4 26 00 00 00 00 	lea    0x0(%esi,%eiz,1),%esi

001010f0 <terminal_setcolor>:
  1010f0:	8b 44 24 04          	mov    0x4(%esp),%eax
  1010f4:	a2 00 20 10 00       	mov    %al,0x102000
  1010f9:	c3                   	ret    
  1010fa:	8d b6 00 00 00 00    	lea    0x0(%esi),%esi

00101100 <terminal_putentryat>:
  101100:	8b 44 24 10          	mov    0x10(%esp),%eax
  101104:	0f b6 54 24 08       	movzbl 0x8(%esp),%edx
  101109:	0f b6 4c 24 04       	movzbl 0x4(%esp),%ecx
  10110e:	8d 04 80             	lea    (%eax,%eax,4),%eax
  101111:	c1 e2 08             	shl    $0x8,%edx
  101114:	c1 e0 04             	shl    $0x4,%eax
  101117:	03 44 24 0c          	add    0xc(%esp),%eax
  10111b:	09 ca                	or     %ecx,%edx
  10111d:	8b 0d 08 20 10 00    	mov    0x102008,%ecx
  101123:	66 89 14 41          	mov    %dx,(%ecx,%eax,2)
  101127:	c3                   	ret    
  101128:	90                   	nop
  101129:	8d b4 26 00 00 00 00 	lea    0x0(%esi,%eiz,1),%esi

00101130 <terminal_putchar>:
  101130:	57                   	push   %edi
  101131:	56                   	push   %esi
  101132:	53                   	push   %ebx
  101133:	8b 7c 24 10          	mov    0x10(%esp),%edi
  101137:	89 f8                	mov    %edi,%eax
  101139:	3c 0a                	cmp    $0xa,%al
  10113b:	74 6b                	je     1011a8 <terminal_putchar+0x78>
  10113d:	0f b6 15 00 20 10 00 	movzbl 0x102000,%edx
  101144:	8b 35 0c 20 10 00    	mov    0x10200c,%esi
  10114a:	8b 1d 04 20 10 00    	mov    0x102004,%ebx
  101150:	8d 04 b6             	lea    (%esi,%esi,4),%eax
  101153:	89 d1                	mov    %edx,%ecx
  101155:	89 fa                	mov    %edi,%edx
  101157:	c1 e1 08             	shl    $0x8,%ecx
  10115a:	0f b6 d2             	movzbl %dl,%edx
  10115d:	c1 e0 04             	shl    $0x4,%eax
  101160:	09 ca                	or     %ecx,%edx
  101162:	8b 0d 08 20 10 00    	mov    0x102008,%ecx
  101168:	01 d8                	add    %ebx,%eax
  10116a:	83 c3 01             	add    $0x1,%ebx
  10116d:	83 fb 50             	cmp    $0x50,%ebx
  101170:	66 89 14 41          	mov    %dx,(%ecx,%eax,2)
  101174:	74 0a                	je     101180 <terminal_putchar+0x50>
  101176:	89 1d 04 20 10 00    	mov    %ebx,0x102004
  10117c:	5b                   	pop    %ebx
  10117d:	5e                   	pop    %esi
  10117e:	5f                   	pop    %edi
  10117f:	c3                   	ret    
  101180:	83 c6 01             	add    $0x1,%esi
  101183:	b8 00 00 00 00       	mov    $0x0,%eax
  101188:	c7 05 04 20 10 00 00 	movl   $0x0,0x102004
  10118f:	00 00 00 
  101192:	83 fe 19             	cmp    $0x19,%esi
  101195:	0f 44 f0             	cmove  %eax,%esi
  101198:	5b                   	pop    %ebx
  101199:	89 35 0c 20 10 00    	mov    %esi,0x10200c
  10119f:	5e                   	pop    %esi
  1011a0:	5f                   	pop    %edi
  1011a1:	c3                   	ret    
  1011a2:	8d b6 00 00 00 00    	lea    0x0(%esi),%esi
  1011a8:	5b                   	pop    %ebx
  1011a9:	c7 05 04 20 10 00 00 	movl   $0x0,0x102004
  1011b0:	00 00 00 
  1011b3:	83 05 0c 20 10 00 01 	addl   $0x1,0x10200c
  1011ba:	5e                   	pop    %esi
  1011bb:	5f                   	pop    %edi
  1011bc:	c3                   	ret    
  1011bd:	8d 76 00             	lea    0x0(%esi),%esi

001011c0 <terminal_write>:
  1011c0:	56                   	push   %esi
  1011c1:	53                   	push   %ebx
  1011c2:	8b 44 24 10          	mov    0x10(%esp),%eax
  1011c6:	8b 5c 24 0c          	mov    0xc(%esp),%ebx
  1011ca:	85 c0                	test   %eax,%eax
  1011cc:	8d 34 03             	lea    (%ebx,%eax,1),%esi
  1011cf:	74 18                	je     1011e9 <terminal_write+0x29>
  1011d1:	8d b4 26 00 00 00 00 	lea    0x0(%esi,%eiz,1),%esi
  1011d8:	0f be 03             	movsbl (%ebx),%eax
  1011db:	83 c3 01             	add    $0x1,%ebx
  1011de:	50                   	push   %eax
  1011df:	e8 4c ff ff ff       	call   101130 <terminal_putchar>
  1011e4:	39 f3                	cmp    %esi,%ebx
  1011e6:	58                   	pop    %eax
  1011e7:	75 ef                	jne    1011d8 <terminal_write+0x18>
  1011e9:	5b                   	pop    %ebx
  1011ea:	5e                   	pop    %esi
  1011eb:	c3                   	ret    
  1011ec:	8d 74 26 00          	lea    0x0(%esi,%eiz,1),%esi

001011f0 <terminal_writestring>:
  1011f0:	56                   	push   %esi
  1011f1:	53                   	push   %ebx
  1011f2:	8b 5c 24 0c          	mov    0xc(%esp),%ebx
  1011f6:	80 3b 00             	cmpb   $0x0,(%ebx)
  1011f9:	74 26                	je     101221 <terminal_writestring+0x31>
  1011fb:	31 c0                	xor    %eax,%eax
  1011fd:	8d 76 00             	lea    0x0(%esi),%esi
  101200:	83 c0 01             	add    $0x1,%eax
  101203:	80 3c 03 00          	cmpb   $0x0,(%ebx,%eax,1)
  101207:	75 f7                	jne    101200 <terminal_writestring+0x10>
  101209:	8d 34 03             	lea    (%ebx,%eax,1),%esi
  10120c:	8d 74 26 00          	lea    0x0(%esi,%eiz,1),%esi
  101210:	0f be 03             	movsbl (%ebx),%eax
  101213:	83 c3 01             	add    $0x1,%ebx
  101216:	50                   	push   %eax
  101217:	e8 14 ff ff ff       	call   101130 <terminal_putchar>
  10121c:	39 f3                	cmp    %esi,%ebx
  10121e:	58                   	pop    %eax
  10121f:	75 ef                	jne    101210 <terminal_writestring+0x20>
  101221:	5b                   	pop    %ebx
  101222:	5e                   	pop    %esi
  101223:	c3                   	ret    
  101224:	8d b6 00 00 00 00    	lea    0x0(%esi),%esi
  10122a:	8d bf 00 00 00 00    	lea    0x0(%edi),%edi

00101230 <strrev>:
  101230:	53                   	push   %ebx
  101231:	8b 5c 24 08          	mov    0x8(%esp),%ebx
  101235:	85 db                	test   %ebx,%ebx
  101237:	74 0c                	je     101245 <strrev+0x15>
  101239:	80 3b 00             	cmpb   $0x0,(%ebx)
  10123c:	74 07                	je     101245 <strrev+0x15>
  10123e:	89 d8                	mov    %ebx,%eax
  101240:	e8 db fd ff ff       	call   101020 <strrev.part.1>
  101245:	89 d8                	mov    %ebx,%eax
  101247:	5b                   	pop    %ebx
  101248:	c3                   	ret    
  101249:	8d b4 26 00 00 00 00 	lea    0x0(%esi,%eiz,1),%esi

00101250 <reverse>:
  101250:	56                   	push   %esi
  101251:	53                   	push   %ebx
  101252:	31 c0                	xor    %eax,%eax
  101254:	8b 54 24 0c          	mov    0xc(%esp),%edx
  101258:	80 3a 00             	cmpb   $0x0,(%edx)
  10125b:	75 05                	jne    101262 <reverse+0x12>
  10125d:	eb 33                	jmp    101292 <reverse+0x42>
  10125f:	90                   	nop
  101260:	89 c8                	mov    %ecx,%eax
  101262:	80 7c 02 01 00       	cmpb   $0x0,0x1(%edx,%eax,1)
  101267:	8d 48 01             	lea    0x1(%eax),%ecx
  10126a:	75 f4                	jne    101260 <reverse+0x10>
  10126c:	85 c0                	test   %eax,%eax
  10126e:	7e 22                	jle    101292 <reverse+0x42>
  101270:	31 c9                	xor    %ecx,%ecx
  101272:	8d b6 00 00 00 00    	lea    0x0(%esi),%esi
  101278:	0f b6 34 0a          	movzbl (%edx,%ecx,1),%esi
  10127c:	0f b6 1c 02          	movzbl (%edx,%eax,1),%ebx
  101280:	88 1c 0a             	mov    %bl,(%edx,%ecx,1)
  101283:	89 f3                	mov    %esi,%ebx
  101285:	83 c1 01             	add    $0x1,%ecx
  101288:	88 1c 02             	mov    %bl,(%edx,%eax,1)
  10128b:	83 e8 01             	sub    $0x1,%eax
  10128e:	39 c1                	cmp    %eax,%ecx
  101290:	7c e6                	jl     101278 <reverse+0x28>
  101292:	5b                   	pop    %ebx
  101293:	5e                   	pop    %esi
  101294:	c3                   	ret    
  101295:	8d 74 26 00          	lea    0x0(%esi,%eiz,1),%esi
  101299:	8d bc 27 00 00 00 00 	lea    0x0(%edi,%eiz,1),%edi

001012a0 <itoa>:
  1012a0:	55                   	push   %ebp
  1012a1:	57                   	push   %edi
  1012a2:	31 ff                	xor    %edi,%edi
  1012a4:	56                   	push   %esi
  1012a5:	53                   	push   %ebx
  1012a6:	8b 6c 24 14          	mov    0x14(%esp),%ebp
  1012aa:	8b 5c 24 18          	mov    0x18(%esp),%ebx
  1012ae:	6a 3c                	push   $0x3c
  1012b0:	e8 7b fe ff ff       	call   101130 <terminal_putchar>
  1012b5:	59                   	pop    %ecx
  1012b6:	8b 44 24 1c          	mov    0x1c(%esp),%eax
  1012ba:	85 c0                	test   %eax,%eax
  1012bc:	8d 70 ff             	lea    -0x1(%eax),%esi
  1012bf:	75 0b                	jne    1012cc <itoa+0x2c>
  1012c1:	eb 4f                	jmp    101312 <itoa+0x72>
  1012c3:	90                   	nop
  1012c4:	8d 74 26 00          	lea    0x0(%esi,%eiz,1),%esi
  1012c8:	39 f7                	cmp    %esi,%edi
  1012ca:	7d 44                	jge    101310 <itoa+0x70>
  1012cc:	89 e8                	mov    %ebp,%eax
  1012ce:	99                   	cltd   
  1012cf:	f7 7c 24 20          	idivl  0x20(%esp)
  1012d3:	8d 6a 30             	lea    0x30(%edx),%ebp
  1012d6:	8d 4a 37             	lea    0x37(%edx),%ecx
  1012d9:	83 fa 09             	cmp    $0x9,%edx
  1012dc:	0f 4e cd             	cmovle %ebp,%ecx
  1012df:	83 c7 01             	add    $0x1,%edi
  1012e2:	89 c5                	mov    %eax,%ebp
  1012e4:	88 4c 3b ff          	mov    %cl,-0x1(%ebx,%edi,1)
  1012e8:	0f be c9             	movsbl %cl,%ecx
  1012eb:	51                   	push   %ecx
  1012ec:	e8 3f fe ff ff       	call   101130 <terminal_putchar>
  1012f1:	85 ed                	test   %ebp,%ebp
  1012f3:	5a                   	pop    %edx
  1012f4:	75 d2                	jne    1012c8 <itoa+0x28>
  1012f6:	c6 04 3b 00          	movb   $0x0,(%ebx,%edi,1)
  1012fa:	80 3b 00             	cmpb   $0x0,(%ebx)
  1012fd:	75 21                	jne    101320 <itoa+0x80>
  1012ff:	6a 3e                	push   $0x3e
  101301:	e8 2a fe ff ff       	call   101130 <terminal_putchar>
  101306:	58                   	pop    %eax
  101307:	31 c0                	xor    %eax,%eax
  101309:	5b                   	pop    %ebx
  10130a:	5e                   	pop    %esi
  10130b:	5f                   	pop    %edi
  10130c:	5d                   	pop    %ebp
  10130d:	c3                   	ret    
  10130e:	66 90                	xchg   %ax,%ax
  101310:	75 e4                	jne    1012f6 <itoa+0x56>
  101312:	b8 ff ff ff ff       	mov    $0xffffffff,%eax
  101317:	eb f0                	jmp    101309 <itoa+0x69>
  101319:	8d b4 26 00 00 00 00 	lea    0x0(%esi,%eiz,1),%esi
  101320:	89 d8                	mov    %ebx,%eax
  101322:	e8 f9 fc ff ff       	call   101020 <strrev.part.1>
  101327:	eb d6                	jmp    1012ff <itoa+0x5f>
  101329:	8d b4 26 00 00 00 00 	lea    0x0(%esi,%eiz,1),%esi

00101330 <kernel_main>:
  101330:	57                   	push   %edi
  101331:	56                   	push   %esi
  101332:	b8 00 80 0b 00       	mov    $0xb8000,%eax
  101337:	53                   	push   %ebx
  101338:	83 ec 20             	sub    $0x20,%esp
  10133b:	c7 05 0c 20 10 00 00 	movl   $0x0,0x10200c
  101342:	00 00 00 
  101345:	c7 05 04 20 10 00 00 	movl   $0x0,0x102004
  10134c:	00 00 00 
  10134f:	8b 7c 24 30          	mov    0x30(%esp),%edi
  101353:	8b 5c 24 34          	mov    0x34(%esp),%ebx
  101357:	c6 05 00 20 10 00 07 	movb   $0x7,0x102000
  10135e:	c7 05 08 20 10 00 00 	movl   $0xb8000,0x102008
  101365:	80 0b 00 
  101368:	90                   	nop
  101369:	8d b4 26 00 00 00 00 	lea    0x0(%esi,%eiz,1),%esi
  101370:	8d 90 a0 00 00 00    	lea    0xa0(%eax),%edx
  101376:	8d 76 00             	lea    0x0(%esi),%esi
  101379:	8d bc 27 00 00 00 00 	lea    0x0(%edi,%eiz,1),%edi
  101380:	b9 20 07 00 00       	mov    $0x720,%ecx
  101385:	83 c0 02             	add    $0x2,%eax
  101388:	66 89 48 fe          	mov    %cx,-0x2(%eax)
  10138c:	39 d0                	cmp    %edx,%eax
  10138e:	75 f0                	jne    101380 <kernel_main+0x50>
  101390:	3d a0 8f 0b 00       	cmp    $0xb8fa0,%eax
  101395:	75 d9                	jne    101370 <kernel_main+0x40>
  101397:	68 d8 14 10 00       	push   $0x1014d8
  10139c:	e8 4f fe ff ff       	call   1011f0 <terminal_writestring>
  1013a1:	68 ee 14 10 00       	push   $0x1014ee
  1013a6:	e8 45 fe ff ff       	call   1011f0 <terminal_writestring>
  1013ab:	6a 10                	push   $0x10
  1013ad:	6a 10                	push   $0x10
  1013af:	8d 74 24 10          	lea    0x10(%esp),%esi
  1013b3:	56                   	push   %esi
  1013b4:	53                   	push   %ebx
  1013b5:	e8 e6 fe ff ff       	call   1012a0 <itoa>
  1013ba:	56                   	push   %esi
  1013bb:	e8 30 fe ff ff       	call   1011f0 <terminal_writestring>
  1013c0:	68 ec 14 10 00       	push   $0x1014ec
  1013c5:	e8 26 fe ff ff       	call   1011f0 <terminal_writestring>
  1013ca:	83 c4 20             	add    $0x20,%esp
  1013cd:	81 ff 02 b0 ad 2b    	cmp    $0x2badb002,%edi
  1013d3:	74 5b                	je     101430 <kernel_main+0x100>
  1013d5:	68 64 15 10 00       	push   $0x101564
  1013da:	e8 11 fe ff ff       	call   1011f0 <terminal_writestring>
  1013df:	6a 10                	push   $0x10
  1013e1:	6a 10                	push   $0x10
  1013e3:	56                   	push   %esi
  1013e4:	57                   	push   %edi
  1013e5:	e8 b6 fe ff ff       	call   1012a0 <itoa>
  1013ea:	56                   	push   %esi
  1013eb:	e8 00 fe ff ff       	call   1011f0 <terminal_writestring>
  1013f0:	68 ec 14 10 00       	push   $0x1014ec
  1013f5:	e8 f6 fd ff ff       	call   1011f0 <terminal_writestring>
  1013fa:	68 79 15 10 00       	push   $0x101579
  1013ff:	e8 ec fd ff ff       	call   1011f0 <terminal_writestring>
  101404:	83 c4 20             	add    $0x20,%esp
  101407:	6a 10                	push   $0x10
  101409:	6a 10                	push   $0x10
  10140b:	56                   	push   %esi
  10140c:	68 02 b0 ad 1b       	push   $0x1badb002
  101411:	e8 8a fe ff ff       	call   1012a0 <itoa>
  101416:	56                   	push   %esi
  101417:	e8 d4 fd ff ff       	call   1011f0 <terminal_writestring>
  10141c:	68 ec 14 10 00       	push   $0x1014ec
  101421:	e8 ca fd ff ff       	call   1011f0 <terminal_writestring>
  101426:	83 c4 18             	add    $0x18,%esp
  101429:	83 c4 20             	add    $0x20,%esp
  10142c:	5b                   	pop    %ebx
  10142d:	5e                   	pop    %esi
  10142e:	5f                   	pop    %edi
  10142f:	c3                   	ret    
  101430:	68 06 15 10 00       	push   $0x101506
  101435:	e8 b6 fd ff ff       	call   1011f0 <terminal_writestring>
  10143a:	68 1e 15 10 00       	push   $0x10151e
  10143f:	e8 ac fd ff ff       	call   1011f0 <terminal_writestring>
  101444:	68 36 15 10 00       	push   $0x101536
  101449:	e8 a2 fd ff ff       	call   1011f0 <terminal_writestring>
  10144e:	6a 10                	push   $0x10
  101450:	6a 10                	push   $0x10
  101452:	56                   	push   %esi
  101453:	ff 33                	pushl  (%ebx)
  101455:	e8 46 fe ff ff       	call   1012a0 <itoa>
  10145a:	56                   	push   %esi
  10145b:	e8 90 fd ff ff       	call   1011f0 <terminal_writestring>
  101460:	83 c4 20             	add    $0x20,%esp
  101463:	68 ec 14 10 00       	push   $0x1014ec
  101468:	e8 83 fd ff ff       	call   1011f0 <terminal_writestring>
  10146d:	68 3e 15 10 00       	push   $0x10153e
  101472:	e8 79 fd ff ff       	call   1011f0 <terminal_writestring>
  101477:	6a 10                	push   $0x10
  101479:	6a 10                	push   $0x10
  10147b:	56                   	push   %esi
  10147c:	ff 73 04             	pushl  0x4(%ebx)
  10147f:	e8 1c fe ff ff       	call   1012a0 <itoa>
  101484:	56                   	push   %esi
  101485:	e8 66 fd ff ff       	call   1011f0 <terminal_writestring>
  10148a:	68 ec 14 10 00       	push   $0x1014ec
  10148f:	e8 5c fd ff ff       	call   1011f0 <terminal_writestring>
  101494:	83 c4 20             	add    $0x20,%esp
  101497:	68 4a 15 10 00       	push   $0x10154a
  10149c:	e8 4f fd ff ff       	call   1011f0 <terminal_writestring>
  1014a1:	6a 10                	push   $0x10
  1014a3:	6a 10                	push   $0x10
  1014a5:	56                   	push   %esi
  1014a6:	ff 73 08             	pushl  0x8(%ebx)
  1014a9:	e8 f2 fd ff ff       	call   1012a0 <itoa>
  1014ae:	56                   	push   %esi
  1014af:	e8 3c fd ff ff       	call   1011f0 <terminal_writestring>
  1014b4:	68 ec 14 10 00       	push   $0x1014ec
  1014b9:	e8 32 fd ff ff       	call   1011f0 <terminal_writestring>
  1014be:	68 56 15 10 00       	push   $0x101556
  1014c3:	e8 28 fd ff ff       	call   1011f0 <terminal_writestring>
  1014c8:	83 c4 20             	add    $0x20,%esp
  1014cb:	6a 10                	push   $0x10
  1014cd:	6a 10                	push   $0x10
  1014cf:	56                   	push   %esi
  1014d0:	ff 73 0c             	pushl  0xc(%ebx)
  1014d3:	e9 39 ff ff ff       	jmp    101411 <kernel_main+0xe1>
